; ModuleID = 'source-C-CXX/35/1696.c'
source_filename = "source-C-CXX/35/1696.c"
target datalayout = "e-m:e-p270:32:32-p271:32:32-p272:64:64-i64:64-f80:128-n8:16:32:64-S128"
target triple = "x86_64-pc-linux-gnu"

@.str = private unnamed_addr constant [6 x i8] c"%s %s\00", align 1
@.str.1 = private unnamed_addr constant [3 x i8] c"NO\00", align 1
@.str.2 = private unnamed_addr constant [4 x i8] c"YES\00", align 1

; Function Attrs: nofree nounwind sspstrong uwtable
define dso_local i32 @main() local_unnamed_addr #0 {
  %1 = alloca [20 x i8], align 16
  %2 = alloca [20 x i8], align 16
  %3 = getelementptr inbounds [20 x i8], [20 x i8]* %1, i64 0, i64 0
  call void @llvm.lifetime.start.p0i8(i64 20, i8* nonnull %3) #4
  %4 = getelementptr inbounds [20 x i8], [20 x i8]* %2, i64 0, i64 0
  call void @llvm.lifetime.start.p0i8(i64 20, i8* nonnull %4) #4
  %5 = call i32 (i8*, ...) @__isoc99_scanf(i8* getelementptr inbounds ([6 x i8], [6 x i8]* @.str, i64 0, i64 0), i8* nonnull %3, i8* nonnull %4)
  %6 = call i64 @strlen(i8* noundef nonnull %3) #5
  %7 = call i64 @strlen(i8* noundef nonnull %4) #5
  %8 = icmp eq i64 %6, %7
  br i1 %8, label %9, label %32

9:                                                ; preds = %0
  %10 = icmp eq i64 %6, 0
  br i1 %10, label %32, label %11

11:                                               ; preds = %9, %26
  %12 = phi i64 [ %29, %26 ], [ 0, %9 ]
  %13 = phi i1 [ %30, %26 ], [ true, %9 ]
  %14 = getelementptr inbounds [20 x i8], [20 x i8]* %1, i64 0, i64 %12
  %15 = load i8, i8* %14, align 1, !tbaa !5
  br label %16

16:                                               ; preds = %11, %21
  %17 = phi i64 [ 0, %11 ], [ %22, %21 ]
  %18 = getelementptr inbounds [20 x i8], [20 x i8]* %2, i64 0, i64 %17
  %19 = load i8, i8* %18, align 1, !tbaa !5
  %20 = icmp eq i8 %15, %19
  br i1 %20, label %26, label %21

21:                                               ; preds = %16
  %22 = add nuw i64 %17, 1
  %23 = icmp eq i64 %22, %6
  br i1 %23, label %24, label %16, !llvm.loop !8

24:                                               ; preds = %21
  %25 = call i32 (i8*, ...) @printf(i8* nonnull dereferenceable(1) getelementptr inbounds ([3 x i8], [3 x i8]* @.str.1, i64 0, i64 0))
  br i1 %13, label %35, label %32

26:                                               ; preds = %16
  %27 = and i64 %17, 4294967295
  %28 = getelementptr inbounds [20 x i8], [20 x i8]* %2, i64 0, i64 %27
  store i8 0, i8* %28, align 1, !tbaa !5
  %29 = add nuw i64 %12, 1
  %30 = icmp ugt i64 %6, %29
  %31 = icmp eq i64 %29, %6
  br i1 %31, label %32, label %11, !llvm.loop !10

32:                                               ; preds = %26, %24, %9, %0
  %33 = phi i8* [ getelementptr inbounds ([3 x i8], [3 x i8]* @.str.1, i64 0, i64 0), %0 ], [ getelementptr inbounds ([4 x i8], [4 x i8]* @.str.2, i64 0, i64 0), %9 ], [ getelementptr inbounds ([4 x i8], [4 x i8]* @.str.2, i64 0, i64 0), %24 ], [ getelementptr inbounds ([4 x i8], [4 x i8]* @.str.2, i64 0, i64 0), %26 ]
  %34 = call i32 (i8*, ...) @printf(i8* nonnull dereferenceable(1) %33)
  br label %35

35:                                               ; preds = %32, %24
  call void @llvm.lifetime.end.p0i8(i64 20, i8* nonnull %4) #4
  call void @llvm.lifetime.end.p0i8(i64 20, i8* nonnull %3) #4
  ret i32 0
}

; Function Attrs: argmemonly mustprogress nofree nosync nounwind willreturn
declare void @llvm.lifetime.start.p0i8(i64 immarg, i8* nocapture) #1

; Function Attrs: nofree nounwind
declare noundef i32 @__isoc99_scanf(i8* nocapture noundef readonly, ...) local_unnamed_addr #2

; Function Attrs: argmemonly mustprogress nofree nounwind readonly willreturn
declare i64 @strlen(i8* nocapture) local_unnamed_addr #3

; Function Attrs: nofree nounwind
declare noundef i32 @printf(i8* nocapture noundef readonly, ...) local_unnamed_addr #2

; Function Attrs: argmemonly mustprogress nofree nosync nounwind willreturn
declare void @llvm.lifetime.end.p0i8(i64 immarg, i8* nocapture) #1


!llvm.module.flags = !{!0, !1, !2, !3}
!llvm.ident = !{!4}

!0 = !{i32 1, !"wchar_size", i32 4}
!1 = !{i32 7, !"PIC Level", i32 2}
!2 = !{i32 7, !"PIE Level", i32 2}
!3 = !{i32 7, !"uwtable", i32 1}
!4 = !{!"clang version 13.0.0"}
!5 = !{!6, !6, i64 0}
!6 = !{!"omnipotent char", !7, i64 0}
!7 = !{!"Simple C/C++ TBAA"}
!8 = distinct !{!8, !9}
!9 = !{!"llvm.loop.mustprogress"}
!10 = distinct !{!10, !9}
